target datalayout = "e-m:e-p270:32:32-p271:32:32-p272:64:64-i64:64-i128:128-f80:128-n8:16:32:64-S128"
target triple = "x86_64-pc-linux-gnu"

%struct._zend_executor_globals = type { %struct._zval_struct, %struct._zval_struct, [32 x ptr], ptr, ptr, %struct._zend_array, %struct._zend_array, ptr, i32, i32, ptr, ptr, ptr, ptr, ptr, ptr, i64, ptr, ptr, i32, i32, i64, i32, i32, i32, i8, i8, %struct.zend_atomic_bool_s, %struct.zend_atomic_bool_s, ptr, i64, ptr, ptr, %struct._zend_array, %struct._zend_array, i32, i8, %struct._zval_struct, %struct._zval_struct, %struct._zend_stack, %struct._zend_stack, %struct._zend_stack, ptr, i32, i32, i64, ptr, ptr, ptr, %struct._zend_objects_store, ptr, ptr, ptr, [3 x %struct._zend_op], ptr, i8, i8, i64, i32, i32, ptr, [16 x %struct._HashTableIterator], ptr, %union._zend_function, %struct._zend_op, %struct._zend_array, i64, %struct.zend_get_gc_buffer, ptr, ptr, ptr, i64, i8, i32, ptr, ptr, i64, %struct._zend_call_stack, i64, i64, [6 x ptr] }
%struct.zend_atomic_bool_s = type { i8 }
%struct._zval_struct = type { %union._zend_value, %union.anon.2, %union.anon.5 }
%union._zend_value = type { i64 }
%union.anon.2 = type { i32 }
%union.anon.5 = type { i32 }
%struct._zend_stack = type { i32, i32, i32, ptr }
%struct._zend_objects_store = type { ptr, i32, i32, i32 }
%struct._HashTableIterator = type { ptr, i32, i32 }
%union._zend_function = type { %struct._zend_op_array }
%struct._zend_op_array = type { i8, [3 x i8], i32, ptr, ptr, ptr, i32, i32, ptr, ptr, ptr, ptr, i32, i32, i32, i32, ptr, ptr, ptr, ptr, ptr, i32, i32, ptr, ptr, ptr, i32, i32, i32, i32, ptr, ptr, [6 x ptr] }
%struct._zend_op = type { ptr, %union._znode_op, %union._znode_op, %union._znode_op, i32, i32, i8, i8, i8, i8 }
%union._znode_op = type { i32 }
%struct._zend_array = type { %struct._zend_refcounted_h, %union.anon.7, i32, %union.anon.9, i32, i32, i32, i32, i64, ptr }
%struct._zend_refcounted_h = type { i32, %union.anon.6 }
%union.anon.6 = type { i32 }
%union.anon.7 = type { i32 }
%union.anon.9 = type { ptr }
%struct.zend_get_gc_buffer = type { ptr, ptr, ptr }
%struct._zend_call_stack = type { ptr, i64 }
%struct._spl_filesystem_object = type { ptr, ptr, ptr, ptr, ptr, i32, i64, ptr, ptr, %union.anon, %struct._zend_object }
%union.anon = type { %struct.anon }
%struct.anon = type { ptr, ptr, i32, ptr, ptr, ptr, %struct._php_stream_dirent }
%struct._php_stream_dirent = type { [256 x i8], i8 }
%struct._zend_object = type { %struct._zend_refcounted_h, i32, ptr, ptr, ptr, [1 x %struct._zval_struct] }
%struct.zend_error_handling = type { i32, ptr }
%struct._zend_execute_data = type { ptr, ptr, ptr, ptr, %struct._zval_struct, ptr, ptr, ptr, ptr }

@executor_globals = external global %struct._zend_executor_globals, align 8
@spl_ce_RuntimeException = external global ptr, align 8

; Function Attrs: nounwind uwtable
define internal ptr @spl_filesystem_from_obj(ptr noundef %0) #0 {
  %2 = alloca ptr, align 8
  store ptr %0, ptr %2, align 8
  %3 = load ptr, ptr %2, align 8
  %4 = getelementptr inbounds i8, ptr %3, i64 -384
  ret ptr %4
}

; Function Attrs: nounwind uwtable
define hidden void @zim_SplFileInfo_isWritable(ptr noundef %0, ptr noundef %1) #0 {
  %3 = alloca ptr, align 8
  %4 = alloca ptr, align 8
  %5 = alloca ptr, align 8
  %6 = alloca %struct.zend_error_handling, align 8
  store ptr %0, ptr %3, align 8
  store ptr %1, ptr %4, align 8
  %7 = load ptr, ptr %3, align 8
  %8 = getelementptr inbounds %struct._zend_execute_data, ptr %7, i32 0, i32 4
  %9 = getelementptr inbounds %struct._zval_struct, ptr %8, i32 0, i32 0
  %10 = load ptr, ptr %9, align 8
  %11 = call ptr @spl_filesystem_from_obj(ptr noundef %10)
  store ptr %11, ptr %5, align 8
  %12 = load ptr, ptr %3, align 8
  %13 = getelementptr inbounds %struct._zend_execute_data, ptr %12, i32 0, i32 4
  %14 = getelementptr inbounds %struct._zval_struct, ptr %13, i32 0, i32 2
  %15 = load i32, ptr %14, align 4
  %16 = icmp eq i32 %15, 0
  %17 = xor i1 %16, true
  %18 = xor i1 %17, true
  %19 = zext i1 %18 to i32
  %20 = sext i32 %19 to i64
  %21 = icmp ne i64 %20, 0
  br i1 %21, label %22, label %23

22:                                               ; preds = %2
  br label %24

23:                                               ; preds = %2
  call void @zend_wrong_parameters_none_error()
  br label %24

24:                                               ; preds = %23, %22
  %25 = phi i32 [ 0, %22 ], [ -1, %23 ]
  %26 = icmp eq i32 %25, -1
  br i1 %26, label %27, label %32

27:                                               ; preds = %24
  br label %28

28:                                               ; preds = %27
  %29 = load ptr, ptr getelementptr inbounds (%struct._zend_executor_globals, ptr @executor_globals, i32 0, i32 50), align 8
  %30 = icmp ne ptr %29, null
  call void @llvm.assume(i1 %30)
  br label %47

31:                                               ; No predecessors!
  br label %32

32:                                               ; preds = %31, %24
  %33 = load ptr, ptr %5, align 8
  %34 = call i32 @spl_filesystem_object_get_file_name(ptr noundef %33)
  %35 = icmp eq i32 %34, -1
  br i1 %35, label %36, label %41

36:                                               ; preds = %32
  br label %37

37:                                               ; preds = %36
  %38 = load ptr, ptr getelementptr inbounds (%struct._zend_executor_globals, ptr @executor_globals, i32 0, i32 50), align 8
  %39 = icmp ne ptr %38, null
  call void @llvm.assume(i1 %39)
  br label %47

40:                                               ; No predecessors!
  br label %41

41:                                               ; preds = %40, %32
  %42 = load ptr, ptr @spl_ce_RuntimeException, align 8
  call void @zend_replace_error_handling(i32 noundef 1, ptr noundef %42, ptr noundef %6)
  %43 = load ptr, ptr %5, align 8
  %44 = getelementptr inbounds %struct._spl_filesystem_object, ptr %43, i32 0, i32 4
  %45 = load ptr, ptr %44, align 8
  %46 = load ptr, ptr %4, align 8
  call void @php_stat(ptr noundef %45, i32 noundef 9, ptr noundef %46)
  call void @zend_restore_error_handling(ptr noundef %6)
  br label %47

47:                                               ; preds = %41, %37, %28
  ret void
}